target datalayout = "e-m:e-p270:32:32-p271:32:32-p272:64:64-i64:64-i128:128-f80:128-n8:16:32:64-S128"
target triple = "x86_64-unknown-linux-gnu"

%"struct.ClipperLib::IntPoint" = type { i64, i64 }
%"struct.ClipperLib::TEdge" = type { %"struct.ClipperLib::IntPoint", %"struct.ClipperLib::IntPoint", %"struct.ClipperLib::IntPoint", double, i32, i32, i32, i32, i32, i32, ptr, ptr, ptr, ptr, ptr, ptr, ptr }
%"class.__gnu_cxx::__normal_iterator" = type { ptr }
%"class.ClipperLib::ClipperBase" = type { ptr, %"class.__gnu_cxx::__normal_iterator", %"class.std::vector.5", i8, %"class.std::vector.10", i8, i8, %"class.std::vector.15", ptr, %"class.std::priority_queue" }
%"class.std::vector.5" = type { %"struct.std::_Vector_base.6" }
%"struct.std::_Vector_base.6" = type { %"struct.std::_Vector_base<ClipperLib::LocalMinimum, std::allocator<ClipperLib::LocalMinimum>>::_Vector_impl" }
%"struct.std::_Vector_base<ClipperLib::LocalMinimum, std::allocator<ClipperLib::LocalMinimum>>::_Vector_impl" = type { %"struct.std::_Vector_base<ClipperLib::LocalMinimum, std::allocator<ClipperLib::LocalMinimum>>::_Vector_impl_data" }
%"struct.std::_Vector_base<ClipperLib::LocalMinimum, std::allocator<ClipperLib::LocalMinimum>>::_Vector_impl_data" = type { ptr, ptr, ptr }
%"class.std::vector.10" = type { %"struct.std::_Vector_base.11" }
%"struct.std::_Vector_base.11" = type { %"struct.std::_Vector_base<ClipperLib::TEdge *, std::allocator<ClipperLib::TEdge *>>::_Vector_impl" }
%"struct.std::_Vector_base<ClipperLib::TEdge *, std::allocator<ClipperLib::TEdge *>>::_Vector_impl" = type { %"struct.std::_Vector_base<ClipperLib::TEdge *, std::allocator<ClipperLib::TEdge *>>::_Vector_impl_data" }
%"struct.std::_Vector_base<ClipperLib::TEdge *, std::allocator<ClipperLib::TEdge *>>::_Vector_impl_data" = type { ptr, ptr, ptr }
%"class.std::vector.15" = type { %"struct.std::_Vector_base.16" }
%"struct.std::_Vector_base.16" = type { %"struct.std::_Vector_base<ClipperLib::OutRec *, std::allocator<ClipperLib::OutRec *>>::_Vector_impl" }
%"struct.std::_Vector_base<ClipperLib::OutRec *, std::allocator<ClipperLib::OutRec *>>::_Vector_impl" = type { %"struct.std::_Vector_base<ClipperLib::OutRec *, std::allocator<ClipperLib::OutRec *>>::_Vector_impl_data" }
%"struct.std::_Vector_base<ClipperLib::OutRec *, std::allocator<ClipperLib::OutRec *>>::_Vector_impl_data" = type { ptr, ptr, ptr }
%"class.std::priority_queue" = type <{ %"class.std::vector.20", %"struct.std::less", [7 x i8] }>
%"class.std::vector.20" = type { %"struct.std::_Vector_base.21" }
%"struct.std::_Vector_base.21" = type { %"struct.std::_Vector_base<long long, std::allocator<long long>>::_Vector_impl" }
%"struct.std::_Vector_base<long long, std::allocator<long long>>::_Vector_impl" = type { %"struct.std::_Vector_base<long long, std::allocator<long long>>::_Vector_impl_data" }
%"struct.std::_Vector_base<long long, std::allocator<long long>>::_Vector_impl_data" = type { ptr, ptr, ptr }
%"struct.std::less" = type { i8 }
%"class.ClipperLib::Clipper" = type <{ ptr, %"class.std::vector.33", %"class.std::vector.33", %"class.std::vector.38", i32, [4 x i8], %"class.std::__cxx11::list", ptr, i8, [3 x i8], i32, i32, i8, i8, i8, i8, %"class.ClipperLib::ClipperBase" }>
%"class.std::vector.33" = type { %"struct.std::_Vector_base.34" }
%"struct.std::_Vector_base.34" = type { %"struct.std::_Vector_base<ClipperLib::Join *, std::allocator<ClipperLib::Join *>>::_Vector_impl" }
%"struct.std::_Vector_base<ClipperLib::Join *, std::allocator<ClipperLib::Join *>>::_Vector_impl" = type { %"struct.std::_Vector_base<ClipperLib::Join *, std::allocator<ClipperLib::Join *>>::_Vector_impl_data" }
%"struct.std::_Vector_base<ClipperLib::Join *, std::allocator<ClipperLib::Join *>>::_Vector_impl_data" = type { ptr, ptr, ptr }
%"class.std::vector.38" = type { %"struct.std::_Vector_base.39" }
%"struct.std::_Vector_base.39" = type { %"struct.std::_Vector_base<ClipperLib::IntersectNode *, std::allocator<ClipperLib::IntersectNode *>>::_Vector_impl" }
%"struct.std::_Vector_base<ClipperLib::IntersectNode *, std::allocator<ClipperLib::IntersectNode *>>::_Vector_impl" = type { %"struct.std::_Vector_base<ClipperLib::IntersectNode *, std::allocator<ClipperLib::IntersectNode *>>::_Vector_impl_data" }
%"struct.std::_Vector_base<ClipperLib::IntersectNode *, std::allocator<ClipperLib::IntersectNode *>>::_Vector_impl_data" = type { ptr, ptr, ptr }
%"class.std::__cxx11::list" = type { %"class.std::__cxx11::_List_base" }
%"class.std::__cxx11::_List_base" = type { %"struct.std::__cxx11::_List_base<long long, std::allocator<long long>>::_List_impl" }
%"struct.std::__cxx11::_List_base<long long, std::allocator<long long>>::_List_impl" = type { %"struct.std::__detail::_List_node_header" }
%"struct.std::__detail::_List_node_header" = type { %"struct.std::__detail::_List_node_base", i64 }
%"struct.std::__detail::_List_node_base" = type { ptr, ptr }

; Function Attrs: mustprogress nounwind uwtable
define hidden void @_ZN10ClipperLib7Clipper13DeleteFromSELEPNS_5TEdgeE(ptr noundef nonnull align 8 dereferenceable(135) %this, ptr noundef %e) #1 align 2 {
entry:
  %this.addr = alloca ptr, align 8
  %e.addr = alloca ptr, align 8
  %SelPrev = alloca ptr, align 8
  %SelNext = alloca ptr, align 8
  store ptr %this, ptr %this.addr, align 8
  store ptr %e, ptr %e.addr, align 8
  %this1 = load ptr, ptr %this.addr, align 8
  %0 = load ptr, ptr %e.addr, align 8
  %PrevInSEL = getelementptr inbounds %"struct.ClipperLib::TEdge", ptr %0, i32 0, i32 16
  %1 = load ptr, ptr %PrevInSEL, align 8
  store ptr %1, ptr %SelPrev, align 8
  %2 = load ptr, ptr %e.addr, align 8
  %NextInSEL = getelementptr inbounds %"struct.ClipperLib::TEdge", ptr %2, i32 0, i32 15
  %3 = load ptr, ptr %NextInSEL, align 8
  store ptr %3, ptr %SelNext, align 8
  %4 = load ptr, ptr %SelPrev, align 8
  %tobool = icmp ne ptr %4, null
  br i1 %tobool, label %if.end, label %land.lhs.true

land.lhs.true:                                    ; preds = %entry
  %5 = load ptr, ptr %SelNext, align 8
  %tobool2 = icmp ne ptr %5, null
  br i1 %tobool2, label %if.end, label %land.lhs.true3

land.lhs.true3:                                   ; preds = %land.lhs.true
  %6 = load ptr, ptr %e.addr, align 8
  %m_SortedEdges = getelementptr inbounds %"class.ClipperLib::Clipper", ptr %this1, i32 0, i32 7
  %7 = load ptr, ptr %m_SortedEdges, align 8
  %cmp = icmp ne ptr %6, %7
  br i1 %cmp, label %if.then, label %if.end

if.then:                                          ; preds = %land.lhs.true3
  br label %return

if.end:                                           ; preds = %land.lhs.true3, %land.lhs.true, %entry
  %8 = load ptr, ptr %SelPrev, align 8
  %tobool4 = icmp ne ptr %8, null
  br i1 %tobool4, label %if.then5, label %if.else

if.then5:                                         ; preds = %if.end
  %9 = load ptr, ptr %SelNext, align 8
  %10 = load ptr, ptr %SelPrev, align 8
  %NextInSEL6 = getelementptr inbounds %"struct.ClipperLib::TEdge", ptr %10, i32 0, i32 15
  store ptr %9, ptr %NextInSEL6, align 8
  br label %if.end8

if.else:                                          ; preds = %if.end
  %11 = load ptr, ptr %SelNext, align 8
  %m_SortedEdges7 = getelementptr inbounds %"class.ClipperLib::Clipper", ptr %this1, i32 0, i32 7
  store ptr %11, ptr %m_SortedEdges7, align 8
  br label %if.end8

if.end8:                                          ; preds = %if.else, %if.then5
  %12 = load ptr, ptr %SelNext, align 8
  %tobool9 = icmp ne ptr %12, null
  br i1 %tobool9, label %if.then10, label %if.end12

if.then10:                                        ; preds = %if.end8
  %13 = load ptr, ptr %SelPrev, align 8
  %14 = load ptr, ptr %SelNext, align 8
  %PrevInSEL11 = getelementptr inbounds %"struct.ClipperLib::TEdge", ptr %14, i32 0, i32 16
  store ptr %13, ptr %PrevInSEL11, align 8
  br label %if.end12

if.end12:                                         ; preds = %if.then10, %if.end8
  %15 = load ptr, ptr %e.addr, align 8
  %NextInSEL13 = getelementptr inbounds %"struct.ClipperLib::TEdge", ptr %15, i32 0, i32 15
  store ptr null, ptr %NextInSEL13, align 8
  %16 = load ptr, ptr %e.addr, align 8
  %PrevInSEL14 = getelementptr inbounds %"struct.ClipperLib::TEdge", ptr %16, i32 0, i32 16
  store ptr null, ptr %PrevInSEL14, align 8
  br label %return

return:                                           ; preds = %if.end12, %if.then
  ret void
}

; Function Attrs: mustprogress uwtable
define hidden noundef zeroext i1 @_ZN10ClipperLib7Clipper14PopEdgeFromSELERPNS_5TEdgeE(ptr noundef nonnull align 8 dereferenceable(135) %this, ptr noundef nonnull align 8 dereferenceable(8) %edge) #0 align 2 {
entry:
  %retval = alloca i1, align 1
  %this.addr = alloca ptr, align 8
  %edge.addr = alloca ptr, align 8
  store ptr %this, ptr %this.addr, align 8
  store ptr %edge, ptr %edge.addr, align 8
  %this1 = load ptr, ptr %this.addr, align 8
  %m_SortedEdges = getelementptr inbounds %"class.ClipperLib::Clipper", ptr %this1, i32 0, i32 7
  %0 = load ptr, ptr %m_SortedEdges, align 8
  %tobool = icmp ne ptr %0, null
  br i1 %tobool, label %if.end, label %if.then

if.then:                                          ; preds = %entry
  store i1 false, ptr %retval, align 1
  br label %return

if.end:                                           ; preds = %entry
  %m_SortedEdges2 = getelementptr inbounds %"class.ClipperLib::Clipper", ptr %this1, i32 0, i32 7
  %1 = load ptr, ptr %m_SortedEdges2, align 8
  %2 = load ptr, ptr %edge.addr, align 8
  store ptr %1, ptr %2, align 8
  %m_SortedEdges3 = getelementptr inbounds %"class.ClipperLib::Clipper", ptr %this1, i32 0, i32 7
  %3 = load ptr, ptr %m_SortedEdges3, align 8
  call void @_ZN10ClipperLib7Clipper13DeleteFromSELEPNS_5TEdgeE(ptr noundef nonnull align 8 dereferenceable(135) %this1, ptr noundef %3)
  store i1 true, ptr %retval, align 1
  br label %return

return:                                           ; preds = %if.end, %if.then
  %4 = load i1, ptr %retval, align 1
  ret i1 %4
}

; Function Attrs: mustprogress uwtable
define hidden void @_ZN10ClipperLib7Clipper18ProcessHorizontalsEv(ptr noundef nonnull align 8 dereferenceable(135) %this) #0 align 2 {
entry:
  %this.addr = alloca ptr, align 8
  %horzEdge = alloca ptr, align 8
  store ptr %this, ptr %this.addr, align 8
  %this1 = load ptr, ptr %this.addr, align 8
  br label %while.cond

while.cond:                                       ; preds = %while.body, %entry
  %call = call noundef zeroext i1 @_ZN10ClipperLib7Clipper14PopEdgeFromSELERPNS_5TEdgeE(ptr noundef nonnull align 8 dereferenceable(135) %this1, ptr noundef nonnull align 8 dereferenceable(8) %horzEdge)
  br i1 %call, label %while.body, label %while.end

while.body:                                       ; preds = %while.cond
  %0 = load ptr, ptr %horzEdge, align 8
  call void @_ZN10ClipperLib7Clipper17ProcessHorizontalEPNS_5TEdgeE(ptr noundef nonnull align 8 dereferenceable(135) %this1, ptr noundef %0)
  br label %while.cond, !llvm.loop !63

while.end:                                        ; preds = %while.cond
  ret void
}