; Function Attrs: mustprogress uwtable
define hidden void @_ZN10ClipperLib7Clipper18ProcessHorizontalsEv(ptr noundef nonnull align 8 dereferenceable(135) %this) local_unnamed_addr #0 align 2 {
entry:
  %m_SortedEdges.i = getelementptr inbounds i8, ptr %this, i64 112
  %0 = load ptr, ptr %m_SortedEdges.i, align 8
  %tobool.not.i.not3 = icmp eq ptr %0, null
  br i1 %tobool.not.i.not3, label %while.end, label %if.end.i.i

if.end.i.i:                                       ; preds = %entry, %while.body
  %1 = phi ptr [ %4, %while.body ], [ %0, %entry ]
  %PrevInSEL.i.i = getelementptr inbounds i8, ptr %1, i64 128
  %2 = load ptr, ptr %PrevInSEL.i.i, align 8
  %NextInSEL.i.i = getelementptr inbounds i8, ptr %1, i64 120
  %3 = load ptr, ptr %NextInSEL.i.i, align 8
  %tobool.i.not.i = icmp eq ptr %2, null
  %tobool2.i.not.i = icmp eq ptr %3, null
  %NextInSEL6.i.i = getelementptr inbounds i8, ptr %2, i64 120
  %m_SortedEdges.sink.i.i = select i1 %tobool.i.not.i, ptr %m_SortedEdges.i, ptr %NextInSEL6.i.i
  store ptr %3, ptr %m_SortedEdges.sink.i.i, align 8
  br i1 %tobool2.i.not.i, label %while.body, label %if.then10.i.i

if.then10.i.i:                                    ; preds = %if.end.i.i
  %PrevInSEL11.i.i = getelementptr inbounds i8, ptr %3, i64 128
  store ptr %2, ptr %PrevInSEL11.i.i, align 8
  br label %while.body

while.body:                                       ; preds = %if.end.i.i, %if.then10.i.i
  tail call void @llvm.memset.p0.i64(ptr noundef nonnull align 8 dereferenceable(16) %NextInSEL.i.i, i8 0, i64 16, i1 false)
  tail call void @_ZN10ClipperLib7Clipper17ProcessHorizontalEPNS_5TEdgeE(ptr noundef nonnull align 8 dereferenceable(135) %this, ptr noundef nonnull %1)
  %4 = load ptr, ptr %m_SortedEdges.i, align 8
  %tobool.not.i.not = icmp eq ptr %4, null
  br i1 %tobool.not.i.not, label %while.end, label %if.end.i.i, !llvm.loop !82

while.end:                                        ; preds = %while.body, %entry
  ret void
}